target datalayout = "e-m:e-p270:32:32-p271:32:32-p272:64:64-i64:64-i128:128-f80:128-n8:16:32:64-S128"
target triple = "x86_64-pc-linux-gnu"

@.str.28 = private unnamed_addr constant [25 x i8] c"Author identity unknown\0A\00", align 1
@stderr = external global ptr, align 8
@.str.29 = private unnamed_addr constant [28 x i8] c"Committer identity unknown\0A\00", align 1
@.str.31 = private unnamed_addr constant [1 x i8] zeroinitializer, align 1
@git_gettext_enabled = external global i32, align 4

; Function Attrs: inlinehint nounwind uwtable
define internal ptr @_(ptr noundef %0) #4 {
  %2 = alloca ptr, align 8
  %3 = alloca ptr, align 8
  store ptr %0, ptr %3, align 8, !tbaa !20
  %4 = load ptr, ptr %3, align 8, !tbaa !20
  %5 = load i8, ptr %4, align 1, !tbaa !21
  %6 = icmp ne i8 %5, 0
  br i1 %6, label %8, label %7

7:                                                ; preds = %1
  store ptr @.str.31, ptr %2, align 8
  br label %16

8:                                                ; preds = %1
  %9 = load i32, ptr @git_gettext_enabled, align 4, !tbaa !4
  %10 = icmp ne i32 %9, 0
  br i1 %10, label %13, label %11

11:                                               ; preds = %8
  %12 = load ptr, ptr %3, align 8, !tbaa !20
  store ptr %12, ptr %2, align 8
  br label %16

13:                                               ; preds = %8
  %14 = load ptr, ptr %3, align 8, !tbaa !20
  %15 = call ptr @dcgettext(ptr noundef null, ptr noundef %14, i32 noundef 5) #10
  store ptr %15, ptr %2, align 8
  br label %16

16:                                               ; preds = %13, %11, %7
  %17 = load ptr, ptr %2, align 8
  ret ptr %17
}

; Function Attrs: nounwind uwtable
define internal void @ident_env_hint(i32 noundef %0) #0 {
  %2 = alloca i32, align 4
  store i32 %0, ptr %2, align 4, !tbaa !4
  %3 = load i32, ptr %2, align 4, !tbaa !4
  switch i32 %3, label %12 [
    i32 1, label %4
    i32 2, label %8
  ]

4:                                                ; preds = %1
  %5 = call ptr @_(ptr noundef @.str.28)
  %6 = load ptr, ptr @stderr, align 8, !tbaa !52
  %7 = call i32 @fputs(ptr noundef %5, ptr noundef %6)
  br label %13

8:                                                ; preds = %1
  %9 = call ptr @_(ptr noundef @.str.29)
  %10 = load ptr, ptr @stderr, align 8, !tbaa !52
  %11 = call i32 @fputs(ptr noundef %9, ptr noundef %10)
  br label %13

12:                                               ; preds = %1
  br label %13

13:                                               ; preds = %12, %8, %4
  %14 = call ptr @_(ptr noundef @.str.30)
  %15 = load ptr, ptr @stderr, align 8, !tbaa !52
  %16 = call i32 @fputs(ptr noundef %14, ptr noundef %15)
  ret void
}