; Function Attrs: nounwind uwtable
define internal fastcc void @ident_env_hint(i32 noundef %0) unnamed_addr #0 {
  switch i32 %0, label %9 [
    i32 1, label %2
    i32 2, label %4
  ]

2:                                                ; preds = %1
  %3 = load i32, ptr @git_gettext_enabled, align 4, !tbaa !4
  %.not4.i = icmp eq i32 %3, 0
  br i1 %.not4.i, label %.sink.split, label %.sink.split.sink.split

4:                                                ; preds = %1
  %5 = load i32, ptr @git_gettext_enabled, align 4, !tbaa !4
  %.not4.i1 = icmp eq i32 %5, 0
  br i1 %.not4.i1, label %.sink.split, label %.sink.split.sink.split

.sink.split.sink.split:                           ; preds = %4, %2
  %.str.29.sink = phi ptr [ @.str.28, %2 ], [ @.str.29, %4 ]
  %6 = tail call ptr @dcgettext(ptr noundef null, ptr noundef nonnull %.str.29.sink, i32 noundef 5) #19
  br label %.sink.split

.sink.split:                                      ; preds = %.sink.split.sink.split, %4, %2
  %.0.i2.sink = phi ptr [ @.str.28, %2 ], [ @.str.29, %4 ], [ %6, %.sink.split.sink.split ]
  %7 = load ptr, ptr @stderr, align 8, !tbaa !47
  %8 = tail call i32 @fputs(ptr noundef %.0.i2.sink, ptr noundef %7) #22
  br label %9

9:                                                ; preds = %.sink.split, %1
  %10 = load i32, ptr @git_gettext_enabled, align 4, !tbaa !4
  %.not4.i4 = icmp eq i32 %10, 0
  br i1 %.not4.i4, label %_.exit6, label %11

11:                                               ; preds = %9
  %12 = tail call ptr @dcgettext(ptr noundef null, ptr noundef nonnull @.str.30, i32 noundef 5) #19
  br label %_.exit6

_.exit6:                                          ; preds = %9, %11
  %.0.i5 = phi ptr [ %12, %11 ], [ @.str.30, %9 ]
  %13 = load ptr, ptr @stderr, align 8, !tbaa !47
  %14 = tail call i32 @fputs(ptr noundef %.0.i5, ptr noundef %13) #22
  ret void
}